target datalayout = "e-m:e-p270:32:32-p271:32:32-p272:64:64-i64:64-i128:128-f80:128-n8:16:32:64-S128"
target triple = "x86_64-pc-linux-gnu"

%struct.mbedtls_md_context_t = type { ptr, ptr, ptr }
%struct.mbedtls_md_info_t = type { i32, i8, i8 }

; Function Attrs: nounwind uwtable
define hidden i32 @mbedtls_md_finish(ptr noundef %0, ptr noundef %1) #0 {
  %3 = alloca i32, align 4
  %4 = alloca ptr, align 8
  %5 = alloca ptr, align 8
  store ptr %0, ptr %4, align 8, !tbaa !7
  store ptr %1, ptr %5, align 8, !tbaa !19
  %6 = load ptr, ptr %4, align 8, !tbaa !7
  %7 = icmp eq ptr %6, null
  br i1 %7, label %13, label %8

8:                                                ; preds = %2
  %9 = load ptr, ptr %4, align 8, !tbaa !7
  %10 = getelementptr inbounds nuw %struct.mbedtls_md_context_t, ptr %9, i32 0, i32 0
  %11 = load ptr, ptr %10, align 8, !tbaa !10
  %12 = icmp eq ptr %11, null
  br i1 %12, label %13, label %14

13:                                               ; preds = %8, %2
  store i32 -20736, ptr %3, align 4
  br label %75

14:                                               ; preds = %8
  %15 = load ptr, ptr %4, align 8, !tbaa !7
  %16 = getelementptr inbounds nuw %struct.mbedtls_md_context_t, ptr %15, i32 0, i32 0
  %17 = load ptr, ptr %16, align 8, !tbaa !10
  %18 = getelementptr inbounds nuw %struct.mbedtls_md_info_t, ptr %17, i32 0, i32 0
  %19 = load i32, ptr %18, align 4, !tbaa !14
  switch i32 %19, label %74 [
    i32 3, label %20
    i32 4, label %26
    i32 5, label %32
    i32 8, label %38
    i32 9, label %44
    i32 10, label %50
    i32 11, label %56
    i32 16, label %62
    i32 17, label %62
    i32 18, label %62
    i32 19, label %62
  ]

20:                                               ; preds = %14
  %21 = load ptr, ptr %4, align 8, !tbaa !7
  %22 = getelementptr inbounds nuw %struct.mbedtls_md_context_t, ptr %21, i32 0, i32 1
  %23 = load ptr, ptr %22, align 8, !tbaa !13
  %24 = load ptr, ptr %5, align 8, !tbaa !19
  %25 = call i32 @mbedtls_md5_finish(ptr noundef %23, ptr noundef %24)
  store i32 %25, ptr %3, align 4
  br label %75

26:                                               ; preds = %14
  %27 = load ptr, ptr %4, align 8, !tbaa !7
  %28 = getelementptr inbounds nuw %struct.mbedtls_md_context_t, ptr %27, i32 0, i32 1
  %29 = load ptr, ptr %28, align 8, !tbaa !13
  %30 = load ptr, ptr %5, align 8, !tbaa !19
  %31 = call i32 @mbedtls_ripemd160_finish(ptr noundef %29, ptr noundef %30)
  store i32 %31, ptr %3, align 4
  br label %75

32:                                               ; preds = %14
  %33 = load ptr, ptr %4, align 8, !tbaa !7
  %34 = getelementptr inbounds nuw %struct.mbedtls_md_context_t, ptr %33, i32 0, i32 1
  %35 = load ptr, ptr %34, align 8, !tbaa !13
  %36 = load ptr, ptr %5, align 8, !tbaa !19
  %37 = call i32 @mbedtls_sha1_finish(ptr noundef %35, ptr noundef %36)
  store i32 %37, ptr %3, align 4
  br label %75

38:                                               ; preds = %14
  %39 = load ptr, ptr %4, align 8, !tbaa !7
  %40 = getelementptr inbounds nuw %struct.mbedtls_md_context_t, ptr %39, i32 0, i32 1
  %41 = load ptr, ptr %40, align 8, !tbaa !13
  %42 = load ptr, ptr %5, align 8, !tbaa !19
  %43 = call i32 @mbedtls_sha256_finish(ptr noundef %41, ptr noundef %42)
  store i32 %43, ptr %3, align 4
  br label %75

44:                                               ; preds = %14
  %45 = load ptr, ptr %4, align 8, !tbaa !7
  %46 = getelementptr inbounds nuw %struct.mbedtls_md_context_t, ptr %45, i32 0, i32 1
  %47 = load ptr, ptr %46, align 8, !tbaa !13
  %48 = load ptr, ptr %5, align 8, !tbaa !19
  %49 = call i32 @mbedtls_sha256_finish(ptr noundef %47, ptr noundef %48)
  store i32 %49, ptr %3, align 4
  br label %75

50:                                               ; preds = %14
  %51 = load ptr, ptr %4, align 8, !tbaa !7
  %52 = getelementptr inbounds nuw %struct.mbedtls_md_context_t, ptr %51, i32 0, i32 1
  %53 = load ptr, ptr %52, align 8, !tbaa !13
  %54 = load ptr, ptr %5, align 8, !tbaa !19
  %55 = call i32 @mbedtls_sha512_finish(ptr noundef %53, ptr noundef %54)
  store i32 %55, ptr %3, align 4
  br label %75

56:                                               ; preds = %14
  %57 = load ptr, ptr %4, align 8, !tbaa !7
  %58 = getelementptr inbounds nuw %struct.mbedtls_md_context_t, ptr %57, i32 0, i32 1
  %59 = load ptr, ptr %58, align 8, !tbaa !13
  %60 = load ptr, ptr %5, align 8, !tbaa !19
  %61 = call i32 @mbedtls_sha512_finish(ptr noundef %59, ptr noundef %60)
  store i32 %61, ptr %3, align 4
  br label %75

62:                                               ; preds = %14, %14, %14, %14
  %63 = load ptr, ptr %4, align 8, !tbaa !7
  %64 = getelementptr inbounds nuw %struct.mbedtls_md_context_t, ptr %63, i32 0, i32 1
  %65 = load ptr, ptr %64, align 8, !tbaa !13
  %66 = load ptr, ptr %5, align 8, !tbaa !19
  %67 = load ptr, ptr %4, align 8, !tbaa !7
  %68 = getelementptr inbounds nuw %struct.mbedtls_md_context_t, ptr %67, i32 0, i32 0
  %69 = load ptr, ptr %68, align 8, !tbaa !10
  %70 = getelementptr inbounds nuw %struct.mbedtls_md_info_t, ptr %69, i32 0, i32 1
  %71 = load i8, ptr %70, align 4, !tbaa !23
  %72 = zext i8 %71 to i64
  %73 = call i32 @mbedtls_sha3_finish(ptr noundef %65, ptr noundef %66, i64 noundef %72)
  store i32 %73, ptr %3, align 4
  br label %75

74:                                               ; preds = %14
  store i32 -20736, ptr %3, align 4
  br label %75

75:                                               ; preds = %74, %62, %56, %50, %44, %38, %32, %26, %20, %13
  %76 = load i32, ptr %3, align 4
  ret i32 %76
}