; Function Attrs: nounwind uwtable
define hidden i32 @mbedtls_md_finish(ptr noundef readonly %0, ptr noundef %1) local_unnamed_addr #3 {
  %3 = icmp eq ptr %0, null
  br i1 %3, label %44, label %4

4:                                                ; preds = %2
  %5 = load ptr, ptr %0, align 8, !tbaa !3
  %6 = icmp eq ptr %5, null
  br i1 %6, label %44, label %7

7:                                                ; preds = %4
  %8 = load i32, ptr %5, align 4, !tbaa !10
  switch i32 %8, label %44 [
    i32 3, label %9
    i32 4, label %13
    i32 5, label %17
    i32 8, label %21
    i32 9, label %25
    i32 10, label %29
    i32 11, label %33
    i32 16, label %37
    i32 17, label %37
    i32 18, label %37
    i32 19, label %37
  ]

9:                                                ; preds = %7
  %10 = getelementptr inbounds nuw i8, ptr %0, i64 8
  %11 = load ptr, ptr %10, align 8, !tbaa !9
  %12 = tail call i32 @mbedtls_md5_finish(ptr noundef %11, ptr noundef %1) #14
  br label %44

13:                                               ; preds = %7
  %14 = getelementptr inbounds nuw i8, ptr %0, i64 8
  %15 = load ptr, ptr %14, align 8, !tbaa !9
  %16 = tail call i32 @mbedtls_ripemd160_finish(ptr noundef %15, ptr noundef %1) #14
  br label %44

17:                                               ; preds = %7
  %18 = getelementptr inbounds nuw i8, ptr %0, i64 8
  %19 = load ptr, ptr %18, align 8, !tbaa !9
  %20 = tail call i32 @mbedtls_sha1_finish(ptr noundef %19, ptr noundef %1) #14
  br label %44

21:                                               ; preds = %7
  %22 = getelementptr inbounds nuw i8, ptr %0, i64 8
  %23 = load ptr, ptr %22, align 8, !tbaa !9
  %24 = tail call i32 @mbedtls_sha256_finish(ptr noundef %23, ptr noundef %1) #14
  br label %44

25:                                               ; preds = %7
  %26 = getelementptr inbounds nuw i8, ptr %0, i64 8
  %27 = load ptr, ptr %26, align 8, !tbaa !9
  %28 = tail call i32 @mbedtls_sha256_finish(ptr noundef %27, ptr noundef %1) #14
  br label %44

29:                                               ; preds = %7
  %30 = getelementptr inbounds nuw i8, ptr %0, i64 8
  %31 = load ptr, ptr %30, align 8, !tbaa !9
  %32 = tail call i32 @mbedtls_sha512_finish(ptr noundef %31, ptr noundef %1) #14
  br label %44

33:                                               ; preds = %7
  %34 = getelementptr inbounds nuw i8, ptr %0, i64 8
  %35 = load ptr, ptr %34, align 8, !tbaa !9
  %36 = tail call i32 @mbedtls_sha512_finish(ptr noundef %35, ptr noundef %1) #14
  br label %44

37:                                               ; preds = %7, %7, %7, %7
  %38 = getelementptr inbounds nuw i8, ptr %0, i64 8
  %39 = load ptr, ptr %38, align 8, !tbaa !9
  %40 = getelementptr inbounds nuw i8, ptr %5, i64 4
  %41 = load i8, ptr %40, align 4, !tbaa !15
  %42 = zext i8 %41 to i64
  %43 = tail call i32 @mbedtls_sha3_finish(ptr noundef %39, ptr noundef %1, i64 noundef %42) #14
  br label %44

44:                                               ; preds = %7, %2, %4, %37, %33, %29, %25, %21, %17, %13, %9
  %.0 = phi i32 [ %43, %37 ], [ %36, %33 ], [ %32, %29 ], [ %28, %25 ], [ %24, %21 ], [ %20, %17 ], [ %16, %13 ], [ %12, %9 ], [ -20736, %4 ], [ -20736, %2 ], [ -20736, %7 ]
  ret i32 %.0
}